target datalayout = "e-m:e-p270:32:32-p271:32:32-p272:64:64-i64:64-i128:128-f80:128-n8:16:32:64-S128"
target triple = "x86_64-pc-linux-gnu"

%struct.aiString = type { i32, [1024 x i8] }
%struct.aiAnimation = type { %struct.aiString, double, double, i32, ptr, i32, ptr, i32, ptr }
%struct.aiMeshMorphAnim = type { %struct.aiString, i32, ptr }
%struct.aiMeshMorphKey = type <{ double, ptr, ptr, i32, [4 x i8] }>

@.str.101 = private unnamed_addr constant [35 x i8] c"Empty mesh morph animation channel\00", align 1
@.str.102 = private unnamed_addr constant [68 x i8] c"aiMeshMorphAnim::mKeys is nullptr (aiMeshMorphAnim::mNumKeys is %i)\00", align 1
@.str.103 = private unnamed_addr constant [94 x i8] c"aiMeshMorphAnim::mKeys[%i].mTime (%.5f) is larger than aiAnimation::mDuration (which is %.5f)\00", align 1
@.str.104 = private unnamed_addr constant [99 x i8] c"aiMeshMorphAnim::mKeys[%i].mTime (%.5f) is smaller than aiMeshMorphAnim::mKeys[%i] (which is %.5f)\00", align 1
@.str.114 = private unnamed_addr constant [51 x i8] c"aiString::length is too large (%u, maximum is %lu)\00", align 1
@.str.115 = private unnamed_addr constant [66 x i8] c"aiString::data is invalid: the terminal zero is at a wrong offset\00", align 1
@.str.116 = private unnamed_addr constant [58 x i8] c"aiString::data is invalid. There is no terminal character\00", align 1

; Function Attrs: mustprogress uwtable
define hidden void @_ZN6Assimp17ValidateDSProcess8ValidateEPK8aiString(ptr noundef nonnull align 8 dereferenceable(32) %0, ptr noundef %1) #5 align 2 {
  %3 = alloca ptr, align 8
  %4 = alloca ptr, align 8
  %5 = alloca ptr, align 8
  store ptr %0, ptr %3, align 8
  store ptr %1, ptr %4, align 8
  %6 = load ptr, ptr %3, align 8
  %7 = load ptr, ptr %4, align 8
  %8 = getelementptr inbounds nuw %struct.aiString, ptr %7, i32 0, i32 0
  %9 = load i32, ptr %8, align 4
  %10 = zext i32 %9 to i64
  %11 = icmp ugt i64 %10, 1024
  br i1 %11, label %12, label %16

12:                                               ; preds = %2
  %13 = load ptr, ptr %4, align 8
  %14 = getelementptr inbounds nuw %struct.aiString, ptr %13, i32 0, i32 0
  %15 = load i32, ptr %14, align 4
  call void (ptr, ptr, ...) @_ZN6Assimp17ValidateDSProcess11ReportErrorEPKcz(ptr noundef nonnull align 8 dereferenceable(32) %6, ptr noundef @.str.114, i32 noundef %15, i64 noundef 1024) #20
  unreachable

16:                                               ; preds = %2
  call void @llvm.lifetime.start.p0(i64 8, ptr %5) #19
  %17 = load ptr, ptr %4, align 8
  %18 = getelementptr inbounds nuw %struct.aiString, ptr %17, i32 0, i32 1
  %19 = getelementptr inbounds [1024 x i8], ptr %18, i64 0, i64 0
  store ptr %19, ptr %5, align 8
  br label %20

20:                                               ; preds = %49, %16
  br label %21

21:                                               ; preds = %20
  %22 = load ptr, ptr %5, align 8
  %23 = load i8, ptr %22, align 1
  %24 = sext i8 %23 to i32
  %25 = icmp eq i32 0, %24
  br i1 %25, label %26, label %41

26:                                               ; preds = %21
  %27 = load ptr, ptr %4, align 8
  %28 = getelementptr inbounds nuw %struct.aiString, ptr %27, i32 0, i32 0
  %29 = load i32, ptr %28, align 4
  %30 = load ptr, ptr %5, align 8
  %31 = load ptr, ptr %4, align 8
  %32 = getelementptr inbounds nuw %struct.aiString, ptr %31, i32 0, i32 1
  %33 = getelementptr inbounds [1024 x i8], ptr %32, i64 0, i64 0
  %34 = ptrtoint ptr %30 to i64
  %35 = ptrtoint ptr %33 to i64
  %36 = sub i64 %34, %35
  %37 = trunc i64 %36 to i32
  %38 = icmp ne i32 %29, %37
  br i1 %38, label %39, label %40

39:                                               ; preds = %26
  call void (ptr, ptr, ...) @_ZN6Assimp17ValidateDSProcess11ReportErrorEPKcz(ptr noundef nonnull align 8 dereferenceable(32) %6, ptr noundef @.str.115) #20
  unreachable

40:                                               ; preds = %26
  br label %52

41:                                               ; preds = %21
  %42 = load ptr, ptr %5, align 8
  %43 = load ptr, ptr %4, align 8
  %44 = getelementptr inbounds nuw %struct.aiString, ptr %43, i32 0, i32 1
  %45 = getelementptr inbounds nuw [1024 x i8], ptr %44, i64 0, i64 1024
  %46 = icmp uge ptr %42, %45
  br i1 %46, label %47, label %48

47:                                               ; preds = %41
  call void (ptr, ptr, ...) @_ZN6Assimp17ValidateDSProcess11ReportErrorEPKcz(ptr noundef nonnull align 8 dereferenceable(32) %6, ptr noundef @.str.116) #20
  unreachable

48:                                               ; preds = %41
  br label %49

49:                                               ; preds = %48
  %50 = load ptr, ptr %5, align 8
  %51 = getelementptr inbounds nuw i8, ptr %50, i32 1
  store ptr %51, ptr %5, align 8
  br label %20, !llvm.loop !24

52:                                               ; preds = %40
  call void @llvm.lifetime.end.p0(i64 8, ptr %5) #19
  ret void
}

; Function Attrs: mustprogress uwtable
define hidden void @_ZN6Assimp17ValidateDSProcess8ValidateEPK11aiAnimationPK15aiMeshMorphAnim(ptr noundef nonnull align 8 dereferenceable(32) %0, ptr noundef %1, ptr noundef %2) #5 align 2 {
  %4 = alloca ptr, align 8
  %5 = alloca ptr, align 8
  %6 = alloca ptr, align 8
  %7 = alloca double, align 8
  %8 = alloca i32, align 4
  store ptr %0, ptr %4, align 8
  store ptr %1, ptr %5, align 8
  store ptr %2, ptr %6, align 8
  %9 = load ptr, ptr %4, align 8
  %10 = load ptr, ptr %6, align 8
  %11 = getelementptr inbounds nuw %struct.aiMeshMorphAnim, ptr %10, i32 0, i32 0
  call void @_ZN6Assimp17ValidateDSProcess8ValidateEPK8aiString(ptr noundef nonnull align 8 dereferenceable(32) %9, ptr noundef %11)
  %12 = load ptr, ptr %6, align 8
  %13 = getelementptr inbounds nuw %struct.aiMeshMorphAnim, ptr %12, i32 0, i32 1
  %14 = load i32, ptr %13, align 4
  %15 = icmp ne i32 %14, 0
  br i1 %15, label %17, label %16

16:                                               ; preds = %3
  call void (ptr, ptr, ...) @_ZN6Assimp17ValidateDSProcess13ReportWarningEPKcz(ptr noundef nonnull align 8 dereferenceable(32) %9, ptr noundef @.str.101)
  br label %119

17:                                               ; preds = %3
  %18 = load ptr, ptr %6, align 8
  %19 = getelementptr inbounds nuw %struct.aiMeshMorphAnim, ptr %18, i32 0, i32 1
  %20 = load i32, ptr %19, align 4
  %21 = icmp ne i32 %20, 0
  br i1 %21, label %22, label %119

22:                                               ; preds = %17
  %23 = load ptr, ptr %6, align 8
  %24 = getelementptr inbounds nuw %struct.aiMeshMorphAnim, ptr %23, i32 0, i32 2
  %25 = load ptr, ptr %24, align 8
  %26 = icmp ne ptr %25, null
  br i1 %26, label %31, label %27

27:                                               ; preds = %22
  %28 = load ptr, ptr %6, align 8
  %29 = getelementptr inbounds nuw %struct.aiMeshMorphAnim, ptr %28, i32 0, i32 1
  %30 = load i32, ptr %29, align 4
  call void (ptr, ptr, ...) @_ZN6Assimp17ValidateDSProcess11ReportErrorEPKcz(ptr noundef nonnull align 8 dereferenceable(32) %9, ptr noundef @.str.102, i32 noundef %30) #20
  unreachable

31:                                               ; preds = %22
  call void @llvm.lifetime.start.p0(i64 8, ptr %7) #19
  store double -1.000000e+11, ptr %7, align 8
  call void @llvm.lifetime.start.p0(i64 4, ptr %8) #19
  store i32 0, ptr %8, align 4
  br label %32

32:                                               ; preds = %115, %31
  %33 = load i32, ptr %8, align 4
  %34 = load ptr, ptr %6, align 8
  %35 = getelementptr inbounds nuw %struct.aiMeshMorphAnim, ptr %34, i32 0, i32 1
  %36 = load i32, ptr %35, align 4
  %37 = icmp ult i32 %33, %36
  br i1 %37, label %39, label %38

38:                                               ; preds = %32
  call void @llvm.lifetime.end.p0(i64 4, ptr %8) #19
  br label %118

39:                                               ; preds = %32
  %40 = load ptr, ptr %5, align 8
  %41 = getelementptr inbounds nuw %struct.aiAnimation, ptr %40, i32 0, i32 1
  %42 = load double, ptr %41, align 8
  %43 = fcmp ogt double %42, 0.000000e+00
  br i1 %43, label %44, label %75

44:                                               ; preds = %39
  %45 = load ptr, ptr %6, align 8
  %46 = getelementptr inbounds nuw %struct.aiMeshMorphAnim, ptr %45, i32 0, i32 2
  %47 = load ptr, ptr %46, align 8
  %48 = load i32, ptr %8, align 4
  %49 = zext i32 %48 to i64
  %50 = getelementptr inbounds nuw %struct.aiMeshMorphKey, ptr %47, i64 %49
  %51 = getelementptr inbounds nuw %struct.aiMeshMorphKey, ptr %50, i32 0, i32 0
  %52 = load double, ptr %51, align 8
  %53 = load ptr, ptr %5, align 8
  %54 = getelementptr inbounds nuw %struct.aiAnimation, ptr %53, i32 0, i32 1
  %55 = load double, ptr %54, align 8
  %56 = fadd double %55, 1.000000e-03
  %57 = fcmp ogt double %52, %56
  br i1 %57, label %58, label %75

58:                                               ; preds = %44
  %59 = load i32, ptr %8, align 4
  %60 = load ptr, ptr %6, align 8
  %61 = getelementptr inbounds nuw %struct.aiMeshMorphAnim, ptr %60, i32 0, i32 2
  %62 = load ptr, ptr %61, align 8
  %63 = load i32, ptr %8, align 4
  %64 = zext i32 %63 to i64
  %65 = getelementptr inbounds nuw %struct.aiMeshMorphKey, ptr %62, i64 %64
  %66 = getelementptr inbounds nuw %struct.aiMeshMorphKey, ptr %65, i32 0, i32 0
  %67 = load double, ptr %66, align 8
  %68 = fptrunc double %67 to float
  %69 = fpext float %68 to double
  %70 = load ptr, ptr %5, align 8
  %71 = getelementptr inbounds nuw %struct.aiAnimation, ptr %70, i32 0, i32 1
  %72 = load double, ptr %71, align 8
  %73 = fptrunc double %72 to float
  %74 = fpext float %73 to double
  call void (ptr, ptr, ...) @_ZN6Assimp17ValidateDSProcess11ReportErrorEPKcz(ptr noundef nonnull align 8 dereferenceable(32) %9, ptr noundef @.str.103, i32 noundef %59, double noundef %69, double noundef %74) #20
  unreachable

75:                                               ; preds = %44, %39
  %76 = load i32, ptr %8, align 4
  %77 = icmp ne i32 %76, 0
  br i1 %77, label %78, label %106

78:                                               ; preds = %75
  %79 = load ptr, ptr %6, align 8
  %80 = getelementptr inbounds nuw %struct.aiMeshMorphAnim, ptr %79, i32 0, i32 2
  %81 = load ptr, ptr %80, align 8
  %82 = load i32, ptr %8, align 4
  %83 = zext i32 %82 to i64
  %84 = getelementptr inbounds nuw %struct.aiMeshMorphKey, ptr %81, i64 %83
  %85 = getelementptr inbounds nuw %struct.aiMeshMorphKey, ptr %84, i32 0, i32 0
  %86 = load double, ptr %85, align 8
  %87 = load double, ptr %7, align 8
  %88 = fcmp ole double %86, %87
  br i1 %88, label %89, label %106

89:                                               ; preds = %78
  %90 = load i32, ptr %8, align 4
  %91 = load ptr, ptr %6, align 8
  %92 = getelementptr inbounds nuw %struct.aiMeshMorphAnim, ptr %91, i32 0, i32 2
  %93 = load ptr, ptr %92, align 8
  %94 = load i32, ptr %8, align 4
  %95 = zext i32 %94 to i64
  %96 = getelementptr inbounds nuw %struct.aiMeshMorphKey, ptr %93, i64 %95
  %97 = getelementptr inbounds nuw %struct.aiMeshMorphKey, ptr %96, i32 0, i32 0
  %98 = load double, ptr %97, align 8
  %99 = fptrunc double %98 to float
  %100 = fpext float %99 to double
  %101 = load i32, ptr %8, align 4
  %102 = sub i32 %101, 1
  %103 = load double, ptr %7, align 8
  %104 = fptrunc double %103 to float
  %105 = fpext float %104 to double
  call void (ptr, ptr, ...) @_ZN6Assimp17ValidateDSProcess13ReportWarningEPKcz(ptr noundef nonnull align 8 dereferenceable(32) %9, ptr noundef @.str.104, i32 noundef %90, double noundef %100, i32 noundef %102, double noundef %105)
  br label %106

106:                                              ; preds = %89, %78, %75
  %107 = load ptr, ptr %6, align 8
  %108 = getelementptr inbounds nuw %struct.aiMeshMorphAnim, ptr %107, i32 0, i32 2
  %109 = load ptr, ptr %108, align 8
  %110 = load i32, ptr %8, align 4
  %111 = zext i32 %110 to i64
  %112 = getelementptr inbounds nuw %struct.aiMeshMorphKey, ptr %109, i64 %111
  %113 = getelementptr inbounds nuw %struct.aiMeshMorphKey, ptr %112, i32 0, i32 0
  %114 = load double, ptr %113, align 8
  store double %114, ptr %7, align 8
  br label %115

115:                                              ; preds = %106
  %116 = load i32, ptr %8, align 4
  %117 = add i32 %116, 1
  store i32 %117, ptr %8, align 4
  br label %32, !llvm.loop !31

118:                                              ; preds = %38
  call void @llvm.lifetime.end.p0(i64 8, ptr %7) #19
  br label %119

119:                                              ; preds = %16, %118, %17
  ret void
}