; Function Attrs: mustprogress uwtable
define hidden void @_ZN6Assimp17ValidateDSProcess8ValidateEPK11aiAnimationPK15aiMeshMorphAnim(ptr nonnull readnone align 8 captures(none) %0, ptr noundef readonly captures(none) %1, ptr noundef readonly captures(none) %2) local_unnamed_addr #7 align 2 {
  %4 = load i32, ptr %2, align 4
  %5 = icmp ugt i32 %4, 1024
  br i1 %5, label %8, label %.preheader.i

.preheader.i:                                     ; preds = %3
  %.0.ptr14.i = getelementptr inbounds nuw i8, ptr %2, i64 4
  %6 = load i8, ptr %.0.ptr14.i, align 1
  %7 = icmp eq i8 %6, 0
  br i1 %7, label %._crit_edge.i, label %.lr.ph.i

8:                                                ; preds = %3
  tail call void (ptr, ptr, ...) @_ZN6Assimp17ValidateDSProcess11ReportErrorEPKcz(ptr nonnull readnone align 8 poison, ptr noundef nonnull @.str.114, i32 noundef %4, i64 noundef 1024) #24
  unreachable

._crit_edge.loopexit.i:                           ; preds = %13
  %9 = trunc i64 %.0.add.i to i32
  %10 = add nsw i32 %9, -4
  br label %._crit_edge.i

._crit_edge.i:                                    ; preds = %._crit_edge.loopexit.i, %.preheader.i
  %.0.idx.lcssa.i = phi i32 [ 0, %.preheader.i ], [ %10, %._crit_edge.loopexit.i ]
  %.not12.i = icmp eq i32 %4, %.0.idx.lcssa.i
  br i1 %.not12.i, label %_ZN6Assimp17ValidateDSProcess8ValidateEPK8aiString.exit, label %11

11:                                               ; preds = %._crit_edge.i
  tail call void (ptr, ptr, ...) @_ZN6Assimp17ValidateDSProcess11ReportErrorEPKcz(ptr nonnull readnone align 8 poison, ptr noundef nonnull @.str.115) #24
  unreachable

.lr.ph.i:                                         ; preds = %.preheader.i, %13
  %.0.idx15.i = phi i64 [ %.0.add.i, %13 ], [ 4, %.preheader.i ]
  %exitcond.not.i = icmp eq i64 %.0.idx15.i, 1028
  br i1 %exitcond.not.i, label %12, label %13

12:                                               ; preds = %.lr.ph.i
  tail call void (ptr, ptr, ...) @_ZN6Assimp17ValidateDSProcess11ReportErrorEPKcz(ptr nonnull readnone align 8 poison, ptr noundef nonnull @.str.116) #24
  unreachable

13:                                               ; preds = %.lr.ph.i
  %.0.add.i = add nuw nsw i64 %.0.idx15.i, 1
  %.0.ptr.i = getelementptr inbounds nuw i8, ptr %2, i64 %.0.add.i
  %14 = load i8, ptr %.0.ptr.i, align 1
  %15 = icmp eq i8 %14, 0
  br i1 %15, label %._crit_edge.loopexit.i, label %.lr.ph.i, !llvm.loop !8

_ZN6Assimp17ValidateDSProcess8ValidateEPK8aiString.exit: ; preds = %._crit_edge.i
  %16 = getelementptr inbounds nuw i8, ptr %2, i64 1028
  %17 = load i32, ptr %16, align 4
  %.not = icmp eq i32 %17, 0
  br i1 %.not, label %18, label %19

18:                                               ; preds = %_ZN6Assimp17ValidateDSProcess8ValidateEPK8aiString.exit
  tail call void (ptr, ptr, ...) @_ZN6Assimp17ValidateDSProcess13ReportWarningEPKcz(ptr nonnull align 8 poison, ptr noundef nonnull @.str.101)
  br label %.loopexit

19:                                               ; preds = %_ZN6Assimp17ValidateDSProcess8ValidateEPK8aiString.exit
  %20 = getelementptr inbounds nuw i8, ptr %2, i64 1032
  %21 = load ptr, ptr %20, align 8
  %.not32 = icmp eq ptr %21, null
  br i1 %.not32, label %23, label %.lr.ph

.lr.ph:                                           ; preds = %19
  %22 = getelementptr inbounds nuw i8, ptr %1, i64 1032
  br label %24

23:                                               ; preds = %19
  tail call void (ptr, ptr, ...) @_ZN6Assimp17ValidateDSProcess11ReportErrorEPKcz(ptr nonnull align 8 poison, ptr noundef nonnull @.str.102, i32 noundef %17) #24
  unreachable

24:                                               ; preds = %.lr.ph, %52
  %25 = phi i32 [ %17, %.lr.ph ], [ %53, %52 ]
  %26 = phi ptr [ %21, %.lr.ph ], [ %54, %52 ]
  %indvars.iv = phi i64 [ 0, %.lr.ph ], [ %indvars.iv.next, %52 ]
  %.02736 = phi double [ -1.000000e+11, %.lr.ph ], [ %56, %52 ]
  %27 = load double, ptr %22, align 8
  %28 = fcmp ogt double %27, 0.000000e+00
  br i1 %28, label %29, label %40

29:                                               ; preds = %24
  %30 = getelementptr inbounds nuw %struct.aiMeshMorphKey, ptr %26, i64 %indvars.iv
  %31 = load double, ptr %30, align 8
  %32 = fadd double %27, 1.000000e-03
  %33 = fcmp ogt double %31, %32
  br i1 %33, label %34, label %40

34:                                               ; preds = %29
  %35 = trunc nuw i64 %indvars.iv to i32
  %36 = fptrunc double %31 to float
  %37 = fpext float %36 to double
  %38 = fptrunc double %27 to float
  %39 = fpext float %38 to double
  tail call void (ptr, ptr, ...) @_ZN6Assimp17ValidateDSProcess11ReportErrorEPKcz(ptr nonnull align 8 poison, ptr noundef nonnull @.str.103, i32 noundef %35, double noundef %37, double noundef %39) #24
  unreachable

40:                                               ; preds = %29, %24
  %.not33 = icmp eq i64 %indvars.iv, 0
  br i1 %.not33, label %52, label %41

41:                                               ; preds = %40
  %42 = getelementptr inbounds nuw %struct.aiMeshMorphKey, ptr %26, i64 %indvars.iv
  %43 = load double, ptr %42, align 8
  %44 = fcmp ugt double %43, %.02736
  br i1 %44, label %52, label %45

45:                                               ; preds = %41
  %46 = fptrunc double %43 to float
  %47 = fpext float %46 to double
  %48 = trunc nuw i64 %indvars.iv to i32
  %49 = add i32 %48, -1
  %50 = fptrunc double %.02736 to float
  %51 = fpext float %50 to double
  tail call void (ptr, ptr, ...) @_ZN6Assimp17ValidateDSProcess13ReportWarningEPKcz(ptr nonnull align 8 poison, ptr noundef nonnull @.str.104, i32 noundef %48, double noundef %47, i32 noundef %49, double noundef %51)
  %.pre = load ptr, ptr %20, align 8
  %.pre43 = load i32, ptr %16, align 4
  br label %52

52:                                               ; preds = %45, %41, %40
  %53 = phi i32 [ %.pre43, %45 ], [ %25, %41 ], [ %25, %40 ]
  %54 = phi ptr [ %.pre, %45 ], [ %26, %41 ], [ %26, %40 ]
  %55 = getelementptr inbounds nuw %struct.aiMeshMorphKey, ptr %54, i64 %indvars.iv
  %56 = load double, ptr %55, align 8
  %indvars.iv.next = add nuw nsw i64 %indvars.iv, 1
  %57 = zext i32 %53 to i64
  %58 = icmp samesign ult i64 %indvars.iv.next, %57
  br i1 %58, label %24, label %.loopexit, !llvm.loop !28

.loopexit:                                        ; preds = %52, %18
  ret void
}